target datalayout = "e-m:e-p270:32:32-p271:32:32-p272:64:64-i64:64-i128:128-f80:128-n8:16:32:64-S128"
target triple = "x86_64-pc-linux-gnu"

%struct.asn1_string_st = type { i32, i32, ptr, i64 }

@bio_err = external global ptr, align 8
@.str.136 = private unnamed_addr constant [21 x i8] c"../openssl/apps/ts.c\00", align 1
@.str.158 = private unnamed_addr constant [13 x i8] c"nonce buffer\00", align 1
@.str.159 = private unnamed_addr constant [24 x i8] c"could not create nonce\0A\00", align 1

; Function Attrs: nounwind uwtable
define internal ptr @create_nonce(i32 noundef %0) #0 {
  %2 = alloca ptr, align 8
  %3 = alloca i32, align 4
  %4 = alloca [20 x i8], align 16
  %5 = alloca ptr, align 8
  %6 = alloca i32, align 4
  %7 = alloca i32, align 4
  %8 = alloca i32, align 4
  store i32 %0, ptr %3, align 4, !tbaa !4
  call void @llvm.lifetime.start.p0(i64 20, ptr %4) #4
  call void @llvm.lifetime.start.p0(i64 8, ptr %5) #4
  store ptr null, ptr %5, align 8, !tbaa !40
  call void @llvm.lifetime.start.p0(i64 4, ptr %6) #4
  %9 = load i32, ptr %3, align 4, !tbaa !4
  %10 = sub nsw i32 %9, 1
  %11 = sdiv i32 %10, 8
  %12 = add nsw i32 %11, 1
  store i32 %12, ptr %6, align 4, !tbaa !4
  call void @llvm.lifetime.start.p0(i64 4, ptr %7) #4
  %13 = load i32, ptr %6, align 4, !tbaa !4
  %14 = icmp sgt i32 %13, 20
  br i1 %14, label %15, label %16

15:                                               ; preds = %1
  br label %73

16:                                               ; preds = %1
  %17 = getelementptr inbounds [20 x i8], ptr %4, i64 0, i64 0
  %18 = load i32, ptr %6, align 4, !tbaa !4
  %19 = call i32 @RAND_bytes(ptr noundef %17, i32 noundef %18)
  %20 = icmp sle i32 %19, 0
  br i1 %20, label %21, label %22

21:                                               ; preds = %16
  br label %73

22:                                               ; preds = %16
  store i32 0, ptr %7, align 4, !tbaa !4
  br label %23

23:                                               ; preds = %37, %22
  %24 = load i32, ptr %7, align 4, !tbaa !4
  %25 = load i32, ptr %6, align 4, !tbaa !4
  %26 = icmp slt i32 %24, %25
  br i1 %26, label %27, label %34

27:                                               ; preds = %23
  %28 = load i32, ptr %7, align 4, !tbaa !4
  %29 = sext i32 %28 to i64
  %30 = getelementptr inbounds [20 x i8], ptr %4, i64 0, i64 %29
  %31 = load i8, ptr %30, align 1, !tbaa !53
  %32 = icmp ne i8 %31, 0
  %33 = xor i1 %32, true
  br label %34

34:                                               ; preds = %27, %23
  %35 = phi i1 [ false, %23 ], [ %33, %27 ]
  br i1 %35, label %36, label %40

36:                                               ; preds = %34
  br label %37

37:                                               ; preds = %36
  %38 = load i32, ptr %7, align 4, !tbaa !4
  %39 = add nsw i32 %38, 1
  store i32 %39, ptr %7, align 4, !tbaa !4
  br label %23, !llvm.loop !54

40:                                               ; preds = %34
  %41 = call ptr @ASN1_INTEGER_new()
  store ptr %41, ptr %5, align 8, !tbaa !40
  %42 = icmp eq ptr %41, null
  br i1 %42, label %43, label %44

43:                                               ; preds = %40
  br label %73

44:                                               ; preds = %40
  %45 = load ptr, ptr %5, align 8, !tbaa !40
  %46 = getelementptr inbounds nuw %struct.asn1_string_st, ptr %45, i32 0, i32 2
  %47 = load ptr, ptr %46, align 8, !tbaa !55
  call void @CRYPTO_free(ptr noundef %47, ptr noundef @.str.136, i32 noundef 574)
  %48 = load i32, ptr %6, align 4, !tbaa !4
  %49 = load i32, ptr %7, align 4, !tbaa !4
  %50 = sub nsw i32 %48, %49
  %51 = load ptr, ptr %5, align 8, !tbaa !40
  %52 = getelementptr inbounds nuw %struct.asn1_string_st, ptr %51, i32 0, i32 0
  store i32 %50, ptr %52, align 8, !tbaa !57
  %53 = load ptr, ptr %5, align 8, !tbaa !40
  %54 = getelementptr inbounds nuw %struct.asn1_string_st, ptr %53, i32 0, i32 0
  %55 = load i32, ptr %54, align 8, !tbaa !57
  %56 = add nsw i32 %55, 1
  %57 = sext i32 %56 to i64
  %58 = call ptr @app_malloc(i64 noundef %57, ptr noundef @.str.158)
  %59 = load ptr, ptr %5, align 8, !tbaa !40
  %60 = getelementptr inbounds nuw %struct.asn1_string_st, ptr %59, i32 0, i32 2
  store ptr %58, ptr %60, align 8, !tbaa !55
  %61 = load ptr, ptr %5, align 8, !tbaa !40
  %62 = getelementptr inbounds nuw %struct.asn1_string_st, ptr %61, i32 0, i32 2
  %63 = load ptr, ptr %62, align 8, !tbaa !55
  %64 = getelementptr inbounds [20 x i8], ptr %4, i64 0, i64 0
  %65 = load i32, ptr %7, align 4, !tbaa !4
  %66 = sext i32 %65 to i64
  %67 = getelementptr inbounds i8, ptr %64, i64 %66
  %68 = load ptr, ptr %5, align 8, !tbaa !40
  %69 = getelementptr inbounds nuw %struct.asn1_string_st, ptr %68, i32 0, i32 0
  %70 = load i32, ptr %69, align 8, !tbaa !57
  %71 = sext i32 %70 to i64
  call void @llvm.memcpy.p0.p0.i64(ptr align 1 %63, ptr align 1 %67, i64 %71, i1 false)
  %72 = load ptr, ptr %5, align 8, !tbaa !40
  store ptr %72, ptr %2, align 8
  store i32 1, ptr %8, align 4
  br label %77

73:                                               ; preds = %43, %21, %15
  %74 = load ptr, ptr @bio_err, align 8, !tbaa !19
  %75 = call i32 (ptr, ptr, ...) @BIO_printf(ptr noundef %74, ptr noundef @.str.159)
  %76 = load ptr, ptr %5, align 8, !tbaa !40
  call void @ASN1_INTEGER_free(ptr noundef %76)
  store ptr null, ptr %2, align 8
  store i32 1, ptr %8, align 4
  br label %77

77:                                               ; preds = %73, %44
  call void @llvm.lifetime.end.p0(i64 4, ptr %7) #4
  call void @llvm.lifetime.end.p0(i64 4, ptr %6) #4
  call void @llvm.lifetime.end.p0(i64 8, ptr %5) #4
  call void @llvm.lifetime.end.p0(i64 20, ptr %4) #4
  %78 = load ptr, ptr %2, align 8
  ret ptr %78
}