; Function Attrs: nounwind uwtable
define internal fastcc ptr @create_nonce() unnamed_addr #0 {
  %1 = alloca [20 x i8], align 16
  call void @llvm.lifetime.start.p0(i64 20, ptr nonnull %1) #7
  %2 = call i32 @RAND_bytes(ptr noundef nonnull %1, i32 noundef 8) #7
  %3 = icmp slt i32 %2, 1
  br i1 %3, label %21, label %.preheader

.preheader:                                       ; preds = %0, %6
  %indvars.iv = phi i64 [ %indvars.iv.next, %6 ], [ 0, %0 ]
  %4 = getelementptr inbounds nuw [20 x i8], ptr %1, i64 0, i64 %indvars.iv
  %5 = load i8, ptr %4, align 1, !tbaa !27
  %.not = icmp eq i8 %5, 0
  br i1 %.not, label %6, label %.critedge.split.loop.exit24

6:                                                ; preds = %.preheader
  %indvars.iv.next = add nuw nsw i64 %indvars.iv, 1
  %exitcond.not = icmp eq i64 %indvars.iv.next, 8
  br i1 %exitcond.not, label %.critedge, label %.preheader, !llvm.loop !28

.critedge.split.loop.exit24:                      ; preds = %.preheader
  %7 = trunc nuw nsw i64 %indvars.iv to i32
  br label %.critedge

.critedge:                                        ; preds = %6, %.critedge.split.loop.exit24
  %.0.lcssa = phi i32 [ %7, %.critedge.split.loop.exit24 ], [ 8, %6 ]
  %8 = call ptr @ASN1_INTEGER_new() #7
  %9 = icmp eq ptr %8, null
  br i1 %9, label %21, label %10

10:                                               ; preds = %.critedge
  %11 = getelementptr inbounds nuw i8, ptr %8, i64 8
  %12 = load ptr, ptr %11, align 8, !tbaa !29
  call void @CRYPTO_free(ptr noundef %12, ptr noundef nonnull @.str.136, i32 noundef 574) #7
  %13 = sub nsw i32 8, %.0.lcssa
  store i32 %13, ptr %8, align 8, !tbaa !31
  %14 = sub nsw i32 9, %.0.lcssa
  %15 = sext i32 %14 to i64
  %16 = call ptr @app_malloc(i64 noundef %15, ptr noundef nonnull @.str.158) #7
  store ptr %16, ptr %11, align 8, !tbaa !29
  %17 = zext nneg i32 %.0.lcssa to i64
  %18 = getelementptr inbounds nuw i8, ptr %1, i64 %17
  %19 = load i32, ptr %8, align 8, !tbaa !31
  %20 = sext i32 %19 to i64
  call void @llvm.memcpy.p0.p0.i64(ptr align 1 %16, ptr nonnull align 1 %18, i64 %20, i1 false)
  br label %24

21:                                               ; preds = %.critedge, %0
  %22 = load ptr, ptr @bio_err, align 8, !tbaa !11
  %23 = call i32 (ptr, ptr, ...) @BIO_printf(ptr noundef %22, ptr noundef nonnull @.str.159) #7
  call void @ASN1_INTEGER_free(ptr noundef null) #7
  br label %24

24:                                               ; preds = %21, %10
  %.018 = phi ptr [ null, %21 ], [ %8, %10 ]
  call void @llvm.lifetime.end.p0(i64 20, ptr nonnull %1) #7
  ret ptr %.018
}